; Function Attrs: null_pointer_is_valid sspstrong uwtable
define noalias noundef ptr @bp_bundle_ident_new(ptr noundef %0, ptr noundef readonly captures(address_is_null) %1, ptr noundef readonly captures(address_is_null) %2, ptr noundef %3, ptr noundef %4) local_unnamed_addr #2 {
  %.not = icmp eq ptr %1, null
  br i1 %.not, label %6, label %7

6:                                                ; preds = %5
  tail call void (ptr, ...) @proto_report_dissector_bug(ptr noundef nonnull @.str, ptr noundef nonnull @.str.1, i32 noundef 668, ptr noundef nonnull @.str.2) #17
  unreachable

7:                                                ; preds = %5
  %.not14 = icmp eq ptr %2, null
  br i1 %.not14, label %8, label %9

8:                                                ; preds = %7
  tail call void (ptr, ...) @proto_report_dissector_bug(ptr noundef nonnull @.str, ptr noundef nonnull @.str.1, i32 noundef 669, ptr noundef nonnull @.str.3) #17
  unreachable

9:                                                ; preds = %7
  %10 = tail call noalias dereferenceable_or_null(72) ptr @wmem_alloc(ptr noundef %0, i64 noundef 72) #16
  %11 = getelementptr inbounds nuw i8, ptr %1, i64 16
  %12 = load i32, ptr %11, align 8
  %13 = getelementptr inbounds nuw i8, ptr %1, i64 20
  %14 = load i32, ptr %13, align 4
  %15 = getelementptr inbounds nuw i8, ptr %1, i64 24
  %16 = load ptr, ptr %15, align 8
  tail call void @llvm.memset.p0.i64(ptr noundef align 8 dereferenceable(24) %10, i8 0, i64 24, i1 false)
  store i32 %12, ptr %10, align 8
  %17 = icmp eq i32 %14, 0
  br i1 %17, label %copy_address_wmem.exit, label %18

18:                                               ; preds = %9
  %19 = sext i32 %14 to i64
  %20 = tail call ptr @wmem_memdup(ptr noundef %0, ptr noundef %16, i64 noundef %19) #18
  %21 = getelementptr inbounds nuw i8, ptr %10, i64 16
  store ptr %20, ptr %21, align 8
  %22 = getelementptr inbounds nuw i8, ptr %10, i64 8
  store ptr %20, ptr %22, align 8
  %23 = getelementptr inbounds nuw i8, ptr %10, i64 4
  store i32 %14, ptr %23, align 4
  br label %copy_address_wmem.exit

copy_address_wmem.exit:                           ; preds = %9, %18
  %24 = getelementptr inbounds nuw i8, ptr %10, i64 24
  tail call void @llvm.memcpy.p0.p0.i64(ptr noundef nonnull align 8 dereferenceable(32) %24, ptr noundef nonnull align 8 dereferenceable(32) %2, i64 32, i1 false)
  %25 = getelementptr inbounds nuw i8, ptr %10, i64 56
  store ptr %3, ptr %25, align 8
  %26 = getelementptr inbounds nuw i8, ptr %10, i64 64
  store ptr %4, ptr %26, align 8
  ret ptr %10
}